; ModuleID = '22/460.c'
source_filename = "22/460.c"
target datalayout = "e-m:e-p270:32:32-p271:32:32-p272:64:64-i64:64-f80:128-n8:16:32:64-S128"
target triple = "x86_64-pc-linux-gnu"

@.str = private unnamed_addr constant [3 x i8] c"%d\00", align 1
@.str.1 = private unnamed_addr constant [3 x i8] c"No\00", align 1

; Function Attrs: noinline nounwind uwtable
define dso_local i32 @main() #0 {
  %1 = alloca i32, align 4
  %2 = alloca i32, align 4
  %3 = alloca i32, align 4
  %4 = alloca [300 x i32], align 16
  %5 = alloca i32, align 4
  %6 = alloca i32, align 4
  %7 = alloca i32, align 4
  %8 = alloca i8, align 1
  store i32 0, i32* %1, align 4
  %9 = bitcast [300 x i32]* %4 to i8*
  call void @llvm.memset.p0i8.i64(i8* align 16 %9, i8 0, i64 1200, i1 false)
  store i32 0, i32* %6, align 4
  store i32 0, i32* %7, align 4
  store i32 0, i32* %2, align 4
  br label %10

10:                                               ; preds = %25, %0
  %11 = load i32, i32* %2, align 4
  %12 = icmp slt i32 %11, 300
  br i1 %12, label %13, label %28

13:                                               ; preds = %10
  %14 = load i32, i32* %2, align 4
  %15 = sext i32 %14 to i64
  %16 = getelementptr inbounds [300 x i32], [300 x i32]* %4, i64 0, i64 %15
  %17 = call i32 (i8*, ...) @__isoc99_scanf(i8* getelementptr inbounds ([3 x i8], [3 x i8]* @.str, i64 0, i64 0), i32* %16)
  %18 = call i32 @getchar()
  %19 = trunc i32 %18 to i8
  store i8 %19, i8* %8, align 1
  %20 = load i8, i8* %8, align 1
  %21 = sext i8 %20 to i32
  %22 = icmp eq i32 %21, 10
  br i1 %22, label %23, label %24

23:                                               ; preds = %13
  br label %28

24:                                               ; preds = %13
  br label %25

25:                                               ; preds = %24
  %26 = load i32, i32* %2, align 4
  %27 = add nsw i32 %26, 1
  store i32 %27, i32* %2, align 4
  br label %10

28:                                               ; preds = %23, %10
  store i32 0, i32* %2, align 4
  br label %29

29:                                               ; preds = %77, %28
  %30 = load i32, i32* %2, align 4
  %31 = icmp slt i32 %30, 299
  br i1 %31, label %32, label %38

32:                                               ; preds = %29
  %33 = load i32, i32* %2, align 4
  %34 = sext i32 %33 to i64
  %35 = getelementptr inbounds [300 x i32], [300 x i32]* %4, i64 0, i64 %34
  %36 = load i32, i32* %35, align 4
  %37 = icmp ne i32 %36, 0
  br label %38

38:                                               ; preds = %32, %29
  %39 = phi i1 [ false, %29 ], [ %37, %32 ]
  br i1 %39, label %40, label %80

40:                                               ; preds = %38
  %41 = load i32, i32* %2, align 4
  %42 = add nsw i32 %41, 1
  store i32 %42, i32* %5, align 4
  br label %43

43:                                               ; preds = %73, %40
  %44 = load i32, i32* %5, align 4
  %45 = icmp slt i32 %44, 300
  br i1 %45, label %46, label %76

46:                                               ; preds = %43
  %47 = load i32, i32* %2, align 4
  %48 = sext i32 %47 to i64
  %49 = getelementptr inbounds [300 x i32], [300 x i32]* %4, i64 0, i64 %48
  %50 = load i32, i32* %49, align 4
  %51 = load i32, i32* %5, align 4
  %52 = sext i32 %51 to i64
  %53 = getelementptr inbounds [300 x i32], [300 x i32]* %4, i64 0, i64 %52
  %54 = load i32, i32* %53, align 4
  %55 = icmp slt i32 %50, %54
  br i1 %55, label %56, label %72

56:                                               ; preds = %46
  %57 = load i32, i32* %5, align 4
  %58 = sext i32 %57 to i64
  %59 = getelementptr inbounds [300 x i32], [300 x i32]* %4, i64 0, i64 %58
  %60 = load i32, i32* %59, align 4
  store i32 %60, i32* %7, align 4
  %61 = load i32, i32* %2, align 4
  %62 = sext i32 %61 to i64
  %63 = getelementptr inbounds [300 x i32], [300 x i32]* %4, i64 0, i64 %62
  %64 = load i32, i32* %63, align 4
  %65 = load i32, i32* %5, align 4
  %66 = sext i32 %65 to i64
  %67 = getelementptr inbounds [300 x i32], [300 x i32]* %4, i64 0, i64 %66
  store i32 %64, i32* %67, align 4
  %68 = load i32, i32* %7, align 4
  %69 = load i32, i32* %2, align 4
  %70 = sext i32 %69 to i64
  %71 = getelementptr inbounds [300 x i32], [300 x i32]* %4, i64 0, i64 %70
  store i32 %68, i32* %71, align 4
  store i32 1, i32* %6, align 4
  br label %72

72:                                               ; preds = %56, %46
  br label %73

73:                                               ; preds = %72
  %74 = load i32, i32* %5, align 4
  %75 = add nsw i32 %74, 1
  store i32 %75, i32* %5, align 4
  br label %43

76:                                               ; preds = %43
  br label %77

77:                                               ; preds = %76
  %78 = load i32, i32* %2, align 4
  %79 = add nsw i32 %78, 1
  store i32 %79, i32* %2, align 4
  br label %29

80:                                               ; preds = %38
  %81 = load i32, i32* %6, align 4
  %82 = icmp eq i32 %81, 1
  br i1 %82, label %83, label %109

83:                                               ; preds = %80
  store i32 1, i32* %2, align 4
  br label %84

84:                                               ; preds = %105, %83
  %85 = load i32, i32* %2, align 4
  %86 = icmp slt i32 %85, 300
  br i1 %86, label %87, label %108

87:                                               ; preds = %84
  %88 = load i32, i32* %2, align 4
  %89 = sext i32 %88 to i64
  %90 = getelementptr inbounds [300 x i32], [300 x i32]* %4, i64 0, i64 %89
  %91 = load i32, i32* %90, align 4
  %92 = load i32, i32* %2, align 4
  %93 = sub nsw i32 %92, 1
  %94 = sext i32 %93 to i64
  %95 = getelementptr inbounds [300 x i32], [300 x i32]* %4, i64 0, i64 %94
  %96 = load i32, i32* %95, align 4
  %97 = icmp ne i32 %91, %96
  br i1 %97, label %98, label %104

98:                                               ; preds = %87
  %99 = load i32, i32* %2, align 4
  %100 = sext i32 %99 to i64
  %101 = getelementptr inbounds [300 x i32], [300 x i32]* %4, i64 0, i64 %100
  %102 = load i32, i32* %101, align 4
  %103 = call i32 (i8*, ...) @printf(i8* getelementptr inbounds ([3 x i8], [3 x i8]* @.str, i64 0, i64 0), i32 %102)
  br label %108

104:                                              ; preds = %87
  br label %105

105:                                              ; preds = %104
  %106 = load i32, i32* %2, align 4
  %107 = add nsw i32 %106, 1
  store i32 %107, i32* %2, align 4
  br label %84

108:                                              ; preds = %98, %84
  br label %111

109:                                              ; preds = %80
  %110 = call i32 (i8*, ...) @printf(i8* getelementptr inbounds ([3 x i8], [3 x i8]* @.str.1, i64 0, i64 0))
  br label %111

111:                                              ; preds = %109, %108
  %112 = load i32, i32* %1, align 4
  ret i32 %112
}

; Function Attrs: argmemonly nounwind willreturn
declare void @llvm.memset.p0i8.i64(i8* nocapture writeonly, i8, i64, i1 immarg) #1

declare dso_local i32 @__isoc99_scanf(i8*, ...) #2

declare dso_local i32 @getchar() #2

declare dso_local i32 @printf(i8*, ...) #2


!llvm.module.flags = !{!0}
!llvm.ident = !{!1}

!0 = !{i32 1, !"wchar_size", i32 4}
!1 = !{!"clang version 10.0.0-4ubuntu1 "}
